target datalayout = "e-m:e-p270:32:32-p271:32:32-p272:64:64-i64:64-i128:128-f80:128-n8:16:32:64-S128"
target triple = "x86_64-unknown-linux-gnu"

%"struct.OpenImageIO_v2_6_0::TypeDesc" = type { i8, i8, i8, i8, i32 }
%"class.OpenImageIO_v2_6_0::ImageInput" = type { ptr, %"class.OpenImageIO_v2_6_0::ImageSpec", %"class.std::unique_ptr" }
%"class.OpenImageIO_v2_6_0::ImageSpec" = type { i32, i32, i32, i32, i32, i32, i32, i32, i32, i32, i32, i32, i32, i32, i32, i32, %"struct.OpenImageIO_v2_6_0::TypeDesc", %"class.std::vector", %"class.std::vector.0", i32, i32, i8, %"class.OpenImageIO_v2_6_0::ParamValueList" }
%"class.std::vector" = type { %"struct.std::_Vector_base" }
%"struct.std::_Vector_base" = type { %"struct.std::_Vector_base<OpenImageIO_v2_6_0::TypeDesc, std::allocator<OpenImageIO_v2_6_0::TypeDesc>>::_Vector_impl" }
%"struct.std::_Vector_base<OpenImageIO_v2_6_0::TypeDesc, std::allocator<OpenImageIO_v2_6_0::TypeDesc>>::_Vector_impl" = type { %"struct.std::_Vector_base<OpenImageIO_v2_6_0::TypeDesc, std::allocator<OpenImageIO_v2_6_0::TypeDesc>>::_Vector_impl_data" }
%"struct.std::_Vector_base<OpenImageIO_v2_6_0::TypeDesc, std::allocator<OpenImageIO_v2_6_0::TypeDesc>>::_Vector_impl_data" = type { ptr, ptr, ptr }
%"class.std::vector.0" = type { %"struct.std::_Vector_base.1" }
%"struct.std::_Vector_base.1" = type { %"struct.std::_Vector_base<std::__cxx11::basic_string<char>, std::allocator<std::__cxx11::basic_string<char>>>::_Vector_impl" }
%"struct.std::_Vector_base<std::__cxx11::basic_string<char>, std::allocator<std::__cxx11::basic_string<char>>>::_Vector_impl" = type { %"struct.std::_Vector_base<std::__cxx11::basic_string<char>, std::allocator<std::__cxx11::basic_string<char>>>::_Vector_impl_data" }
%"struct.std::_Vector_base<std::__cxx11::basic_string<char>, std::allocator<std::__cxx11::basic_string<char>>>::_Vector_impl_data" = type { ptr, ptr, ptr }
%"class.OpenImageIO_v2_6_0::ParamValueList" = type { %"class.std::vector.5" }
%"class.std::vector.5" = type { %"struct.std::_Vector_base.6" }
%"struct.std::_Vector_base.6" = type { %"struct.std::_Vector_base<OpenImageIO_v2_6_0::ParamValue, std::allocator<OpenImageIO_v2_6_0::ParamValue>>::_Vector_impl" }
%"struct.std::_Vector_base<OpenImageIO_v2_6_0::ParamValue, std::allocator<OpenImageIO_v2_6_0::ParamValue>>::_Vector_impl" = type { %"struct.std::_Vector_base<OpenImageIO_v2_6_0::ParamValue, std::allocator<OpenImageIO_v2_6_0::ParamValue>>::_Vector_impl_data" }
%"struct.std::_Vector_base<OpenImageIO_v2_6_0::ParamValue, std::allocator<OpenImageIO_v2_6_0::ParamValue>>::_Vector_impl_data" = type { ptr, ptr, ptr }
%"class.std::unique_ptr" = type { %"struct.std::__uniq_ptr_data" }
%"struct.std::__uniq_ptr_data" = type { %"class.std::__uniq_ptr_impl" }
%"class.std::__uniq_ptr_impl" = type { %"class.std::tuple" }
%"class.std::tuple" = type { %"struct.std::_Tuple_impl" }
%"struct.std::_Tuple_impl" = type { %"struct.std::_Tuple_impl.10", %"struct.std::_Head_base.11" }
%"struct.std::_Tuple_impl.10" = type { %"struct.std::_Head_base" }
%"struct.std::_Head_base" = type { ptr }
%"struct.std::_Head_base.11" = type { ptr }

@.str.23 = private unnamed_addr constant [14 x i8] c"Photoshop 3.0\00", align 1
@.str.35 = private unnamed_addr constant [5 x i8] c"8BIM\00", align 1

; Function Attrs: mustprogress uwtable
define hidden void @_ZN18OpenImageIO_v2_6_08JpgInput16jpeg_decode_iptcEPKh(ptr noundef nonnull align 8 dereferenceable(1296) %this, ptr noundef %buf) #6 align 2 {
entry:
  %this.addr = alloca ptr, align 8
  %buf.addr = alloca ptr, align 8
  %segmentsize = alloca i32, align 4
  store ptr %this, ptr %this.addr, align 8
  store ptr %buf, ptr %buf.addr, align 8
  %this1 = load ptr, ptr %this.addr, align 8
  %0 = load ptr, ptr %buf.addr, align 8
  %call = call i32 @strcmp(ptr noundef %0, ptr noundef @.str.23) #22
  %tobool = icmp ne i32 %call, 0
  br i1 %tobool, label %if.then, label %if.end

if.then:                                          ; preds = %entry
  br label %return

if.end:                                           ; preds = %entry
  %1 = load ptr, ptr %buf.addr, align 8
  %add.ptr = getelementptr inbounds i8, ptr %1, i64 14
  store ptr %add.ptr, ptr %buf.addr, align 8
  %2 = load ptr, ptr %buf.addr, align 8
  %call2 = call i32 @strncmp(ptr noundef %2, ptr noundef @.str.35, i64 noundef 4) #22
  %tobool3 = icmp ne i32 %call2, 0
  br i1 %tobool3, label %if.then4, label %if.end5

if.then4:                                         ; preds = %if.end
  br label %return

if.end5:                                          ; preds = %if.end
  %3 = load ptr, ptr %buf.addr, align 8
  %add.ptr6 = getelementptr inbounds i8, ptr %3, i64 4
  store ptr %add.ptr6, ptr %buf.addr, align 8
  %4 = load ptr, ptr %buf.addr, align 8
  %arrayidx = getelementptr inbounds i8, ptr %4, i64 0
  %5 = load i8, ptr %arrayidx, align 1
  %conv = zext i8 %5 to i32
  %shl = shl i32 %conv, 8
  %6 = load ptr, ptr %buf.addr, align 8
  %arrayidx7 = getelementptr inbounds i8, ptr %6, i64 1
  %7 = load i8, ptr %arrayidx7, align 1
  %conv8 = zext i8 %7 to i32
  %add = add nsw i32 %shl, %conv8
  %cmp = icmp ne i32 %add, 1028
  br i1 %cmp, label %if.then9, label %if.end10

if.then9:                                         ; preds = %if.end5
  br label %return

if.end10:                                         ; preds = %if.end5
  %8 = load ptr, ptr %buf.addr, align 8
  %add.ptr11 = getelementptr inbounds i8, ptr %8, i64 2
  store ptr %add.ptr11, ptr %buf.addr, align 8
  %9 = load ptr, ptr %buf.addr, align 8
  %add.ptr12 = getelementptr inbounds i8, ptr %9, i64 4
  store ptr %add.ptr12, ptr %buf.addr, align 8
  %10 = load ptr, ptr %buf.addr, align 8
  %arrayidx13 = getelementptr inbounds i8, ptr %10, i64 0
  %11 = load i8, ptr %arrayidx13, align 1
  %conv14 = zext i8 %11 to i32
  %shl15 = shl i32 %conv14, 8
  %12 = load ptr, ptr %buf.addr, align 8
  %arrayidx16 = getelementptr inbounds i8, ptr %12, i64 1
  %13 = load i8, ptr %arrayidx16, align 1
  %conv17 = zext i8 %13 to i32
  %add18 = add nsw i32 %shl15, %conv17
  store i32 %add18, ptr %segmentsize, align 4
  %14 = load ptr, ptr %buf.addr, align 8
  %add.ptr19 = getelementptr inbounds i8, ptr %14, i64 2
  store ptr %add.ptr19, ptr %buf.addr, align 8
  %15 = load ptr, ptr %buf.addr, align 8
  %16 = load i32, ptr %segmentsize, align 4
  %m_spec = getelementptr inbounds %"class.OpenImageIO_v2_6_0::ImageInput", ptr %this1, i32 0, i32 1
  %call20 = call noundef zeroext i1 @_ZN18OpenImageIO_v2_6_015decode_iptc_iimEPKviRNS_9ImageSpecE(ptr noundef %15, i32 noundef %16, ptr noundef nonnull align 8 dereferenceable(160) %m_spec)
  br label %return

return:                                           ; preds = %if.end10, %if.then9, %if.then4, %if.then
  ret void
}