; Function Attrs: mustprogress uwtable
define hidden void @_ZN18OpenImageIO_v2_6_08JpgInput16jpeg_decode_iptcEPKh(ptr noundef nonnull align 8 dereferenceable(1296) %this, ptr noundef %buf) local_unnamed_addr #6 align 2 {
entry:
  %call = tail call i32 @strcmp(ptr noundef nonnull dereferenceable(1) %buf, ptr noundef nonnull dereferenceable(14) @.str.23) #30
  %tobool.not = icmp eq i32 %call, 0
  br i1 %tobool.not, label %if.end, label %return

if.end:                                           ; preds = %entry
  %add.ptr = getelementptr inbounds i8, ptr %buf, i64 14
  %call2 = tail call i32 @strncmp(ptr noundef nonnull dereferenceable(1) %add.ptr, ptr noundef nonnull dereferenceable(5) @.str.35, i64 noundef 4) #30
  %tobool3.not = icmp eq i32 %call2, 0
  br i1 %tobool3.not, label %if.end5, label %return

if.end5:                                          ; preds = %if.end
  %add.ptr6 = getelementptr inbounds i8, ptr %buf, i64 18
  %0 = load i8, ptr %add.ptr6, align 1
  %conv = zext i8 %0 to i32
  %shl = shl nuw nsw i32 %conv, 8
  %arrayidx7 = getelementptr inbounds i8, ptr %buf, i64 19
  %1 = load i8, ptr %arrayidx7, align 1
  %conv8 = zext i8 %1 to i32
  %add = or disjoint i32 %shl, %conv8
  %cmp.not = icmp eq i32 %add, 1028
  br i1 %cmp.not, label %if.end10, label %return

if.end10:                                         ; preds = %if.end5
  %add.ptr12 = getelementptr inbounds i8, ptr %buf, i64 24
  %2 = load i8, ptr %add.ptr12, align 1
  %conv14 = zext i8 %2 to i32
  %shl15 = shl nuw nsw i32 %conv14, 8
  %arrayidx16 = getelementptr inbounds i8, ptr %buf, i64 25
  %3 = load i8, ptr %arrayidx16, align 1
  %conv17 = zext i8 %3 to i32
  %add18 = or disjoint i32 %shl15, %conv17
  %add.ptr19 = getelementptr inbounds i8, ptr %buf, i64 26
  %m_spec = getelementptr inbounds i8, ptr %this, i64 8
  %call20 = tail call noundef zeroext i1 @_ZN18OpenImageIO_v2_6_015decode_iptc_iimEPKviRNS_9ImageSpecE(ptr noundef nonnull %add.ptr19, i32 noundef %add18, ptr noundef nonnull align 8 dereferenceable(160) %m_spec)
  br label %return

return:                                           ; preds = %if.end5, %if.end, %entry, %if.end10
  ret void
}